target datalayout = "e-m:e-p270:32:32-p271:32:32-p272:64:64-i64:64-i128:128-f80:128-n8:16:32:64-S128"
target triple = "x86_64-pc-linux-gnu"

%struct.AVFormatContext = type { ptr, ptr, ptr, ptr, ptr, i32, i32, ptr, i32, ptr, i32, ptr, ptr, i64, i64, i64, i32, i32, i32, i64, i64, ptr, i32, i32, ptr, i32, i32, i32, i32, ptr, i64, i32, i32, %struct.AVIOInterruptCB, i32, i32, i32, i32, i64, i32, i32, i32, i32, i32, i32, i32, i32, i32, i32, i32, i32, i64, i32, i32, i32, i32, i32, ptr, ptr, ptr, ptr, i32, ptr, ptr, ptr, ptr, i32, ptr, ptr, i64, ptr, ptr, ptr, i64 }
%struct.AVIOInterruptCB = type { ptr, ptr }
%struct.SWFEncContext = type { i64, i64, i64, i32, i32, i32, i32, i32, ptr, ptr, ptr, ptr }
%struct.AVStream = type { ptr, i32, i32, ptr, ptr, %struct.AVRational, i64, i64, i64, i32, i32, %struct.AVRational, ptr, %struct.AVRational, %struct.AVPacket, i32, %struct.AVRational, i32 }
%struct.AVPacket = type { ptr, i64, i64, ptr, i32, i32, i32, ptr, i32, i64, i64, ptr, ptr, %struct.AVRational }
%struct.AVRational = type { i32, i32 }
%struct.AVCodecParameters = type { i32, i32, i32, ptr, i32, ptr, i32, i32, i64, i32, i32, i32, i32, i32, i32, %struct.AVRational, %struct.AVRational, i32, i32, i32, i32, i32, i32, i32, %struct.AVChannelLayout, i32, i32, i32, i32, i32, i32 }
%struct.AVChannelLayout = type { i32, i32, %union.anon, ptr }
%union.anon = type { i64 }

@.str.16 = private unnamed_addr constant [53 x i8] c"warning: Flash Player limit of 16000 frames reached\0A\00", align 1
@.str.17 = private unnamed_addr constant [43 x i8] c"audio fifo too small to mux audio essence\0A\00", align 1

; Function Attrs: nounwind uwtable
define internal i32 @swf_write_audio(ptr noundef %0, ptr noundef %1, ptr noundef %2, i32 noundef %3) #0 {
  %5 = alloca i32, align 4
  %6 = alloca ptr, align 8
  %7 = alloca ptr, align 8
  %8 = alloca ptr, align 8
  %9 = alloca i32, align 4
  %10 = alloca ptr, align 8
  %11 = alloca i32, align 4
  store ptr %0, ptr %6, align 8, !tbaa !4
  store ptr %1, ptr %7, align 8, !tbaa !47
  store ptr %2, ptr %8, align 8, !tbaa !84
  store i32 %3, ptr %9, align 4, !tbaa !37
  call void @llvm.lifetime.start.p0(i64 8, ptr %10) #8
  %12 = load ptr, ptr %6, align 8, !tbaa !4
  %13 = getelementptr inbounds nuw %struct.AVFormatContext, ptr %12, i32 0, i32 3
  %14 = load ptr, ptr %13, align 8, !tbaa !9
  store ptr %14, ptr %10, align 8, !tbaa !26
  %15 = load ptr, ptr %10, align 8, !tbaa !26
  %16 = getelementptr inbounds nuw %struct.SWFEncContext, ptr %15, i32 0, i32 5
  %17 = load i32, ptr %16, align 8, !tbaa !35
  %18 = icmp eq i32 %17, 16000
  br i1 %18, label %19, label %21

19:                                               ; preds = %4
  %20 = load ptr, ptr %6, align 8, !tbaa !4
  call void (ptr, i32, ptr, ...) @av_log(ptr noundef %20, i32 noundef 32, ptr noundef @.str.16)
  br label %21

21:                                               ; preds = %19, %4
  %22 = load ptr, ptr %10, align 8, !tbaa !26
  %23 = getelementptr inbounds nuw %struct.SWFEncContext, ptr %22, i32 0, i32 8
  %24 = load ptr, ptr %23, align 8, !tbaa !53
  %25 = call i64 @av_fifo_can_write(ptr noundef %24)
  %26 = load i32, ptr %9, align 4, !tbaa !37
  %27 = sext i32 %26 to i64
  %28 = icmp ult i64 %25, %27
  br i1 %28, label %29, label %31

29:                                               ; preds = %21
  %30 = load ptr, ptr %6, align 8, !tbaa !4
  call void (ptr, i32, ptr, ...) @av_log(ptr noundef %30, i32 noundef 16, ptr noundef @.str.17)
  store i32 -1, ptr %5, align 4
  store i32 1, ptr %11, align 4
  br label %55

31:                                               ; preds = %21
  %32 = load ptr, ptr %10, align 8, !tbaa !26
  %33 = getelementptr inbounds nuw %struct.SWFEncContext, ptr %32, i32 0, i32 8
  %34 = load ptr, ptr %33, align 8, !tbaa !53
  %35 = load ptr, ptr %8, align 8, !tbaa !84
  %36 = load i32, ptr %9, align 4, !tbaa !37
  %37 = sext i32 %36 to i64
  %38 = call i32 @av_fifo_write(ptr noundef %34, ptr noundef %35, i64 noundef %37)
  %39 = load ptr, ptr %7, align 8, !tbaa !47
  %40 = load i32, ptr %9, align 4, !tbaa !37
  %41 = call i32 @av_get_audio_frame_duration2(ptr noundef %39, i32 noundef %40)
  %42 = load ptr, ptr %10, align 8, !tbaa !26
  %43 = getelementptr inbounds nuw %struct.SWFEncContext, ptr %42, i32 0, i32 4
  %44 = load i32, ptr %43, align 4, !tbaa !30
  %45 = add nsw i32 %44, %41
  store i32 %45, ptr %43, align 4, !tbaa !30
  %46 = load ptr, ptr %10, align 8, !tbaa !26
  %47 = getelementptr inbounds nuw %struct.SWFEncContext, ptr %46, i32 0, i32 10
  %48 = load ptr, ptr %47, align 8, !tbaa !55
  %49 = icmp ne ptr %48, null
  br i1 %49, label %54, label %50

50:                                               ; preds = %31
  %51 = load ptr, ptr %6, align 8, !tbaa !4
  %52 = load ptr, ptr %7, align 8, !tbaa !47
  %53 = call i32 @swf_write_video(ptr noundef %51, ptr noundef %52, ptr noundef null, i32 noundef 0, i32 noundef 0)
  br label %54

54:                                               ; preds = %50, %31
  store i32 0, ptr %5, align 4
  store i32 1, ptr %11, align 4
  br label %55

55:                                               ; preds = %54, %29
  call void @llvm.lifetime.end.p0(i64 8, ptr %10) #8
  %56 = load i32, ptr %5, align 4
  ret i32 %56
}

; Function Attrs: nounwind uwtable
define internal i32 @swf_write_packet(ptr noundef %0, ptr noundef %1) #0 {
  %3 = alloca i32, align 4
  %4 = alloca ptr, align 8
  %5 = alloca ptr, align 8
  %6 = alloca ptr, align 8
  %7 = alloca i32, align 4
  store ptr %0, ptr %4, align 8, !tbaa !4
  store ptr %1, ptr %5, align 8, !tbaa !70
  call void @llvm.lifetime.start.p0(i64 8, ptr %6) #8
  %8 = load ptr, ptr %4, align 8, !tbaa !4
  %9 = getelementptr inbounds nuw %struct.AVFormatContext, ptr %8, i32 0, i32 7
  %10 = load ptr, ptr %9, align 8, !tbaa !39
  %11 = load ptr, ptr %5, align 8, !tbaa !70
  %12 = getelementptr inbounds nuw %struct.AVPacket, ptr %11, i32 0, i32 5
  %13 = load i32, ptr %12, align 4, !tbaa !72
  %14 = sext i32 %13 to i64
  %15 = getelementptr inbounds ptr, ptr %10, i64 %14
  %16 = load ptr, ptr %15, align 8, !tbaa !40
  %17 = getelementptr inbounds nuw %struct.AVStream, ptr %16, i32 0, i32 3
  %18 = load ptr, ptr %17, align 8, !tbaa !41
  store ptr %18, ptr %6, align 8, !tbaa !47
  %19 = load ptr, ptr %6, align 8, !tbaa !47
  %20 = getelementptr inbounds nuw %struct.AVCodecParameters, ptr %19, i32 0, i32 0
  %21 = load i32, ptr %20, align 8, !tbaa !48
  %22 = icmp eq i32 %21, 1
  br i1 %22, label %23, label %33

23:                                               ; preds = %2
  %24 = load ptr, ptr %4, align 8, !tbaa !4
  %25 = load ptr, ptr %6, align 8, !tbaa !47
  %26 = load ptr, ptr %5, align 8, !tbaa !70
  %27 = getelementptr inbounds nuw %struct.AVPacket, ptr %26, i32 0, i32 3
  %28 = load ptr, ptr %27, align 8, !tbaa !73
  %29 = load ptr, ptr %5, align 8, !tbaa !70
  %30 = getelementptr inbounds nuw %struct.AVPacket, ptr %29, i32 0, i32 4
  %31 = load i32, ptr %30, align 8, !tbaa !74
  %32 = call i32 @swf_write_audio(ptr noundef %24, ptr noundef %25, ptr noundef %28, i32 noundef %31)
  store i32 %32, ptr %3, align 4
  store i32 1, ptr %7, align 4
  br label %46

33:                                               ; preds = %2
  %34 = load ptr, ptr %4, align 8, !tbaa !4
  %35 = load ptr, ptr %6, align 8, !tbaa !47
  %36 = load ptr, ptr %5, align 8, !tbaa !70
  %37 = getelementptr inbounds nuw %struct.AVPacket, ptr %36, i32 0, i32 3
  %38 = load ptr, ptr %37, align 8, !tbaa !73
  %39 = load ptr, ptr %5, align 8, !tbaa !70
  %40 = getelementptr inbounds nuw %struct.AVPacket, ptr %39, i32 0, i32 4
  %41 = load i32, ptr %40, align 8, !tbaa !74
  %42 = load ptr, ptr %5, align 8, !tbaa !70
  %43 = getelementptr inbounds nuw %struct.AVPacket, ptr %42, i32 0, i32 6
  %44 = load i32, ptr %43, align 8, !tbaa !75
  %45 = call i32 @swf_write_video(ptr noundef %34, ptr noundef %35, ptr noundef %38, i32 noundef %41, i32 noundef %44)
  store i32 %45, ptr %3, align 4
  store i32 1, ptr %7, align 4
  br label %46

46:                                               ; preds = %33, %23
  call void @llvm.lifetime.end.p0(i64 8, ptr %6) #8
  %47 = load i32, ptr %3, align 4
  ret i32 %47
}