; Function Attrs: nounwind uwtable
define internal range(i32 -1, 1) i32 @swf_write_packet(ptr noundef %0, ptr noundef readonly captures(none) %1) #0 {
  %3 = getelementptr inbounds nuw i8, ptr %0, i64 48
  %4 = load ptr, ptr %3, align 8, !tbaa !33
  %5 = getelementptr inbounds nuw i8, ptr %1, i64 36
  %6 = load i32, ptr %5, align 4, !tbaa !73
  %7 = sext i32 %6 to i64
  %8 = getelementptr inbounds ptr, ptr %4, i64 %7
  %9 = load ptr, ptr %8, align 8, !tbaa !34
  %10 = getelementptr inbounds nuw i8, ptr %9, i64 16
  %11 = load ptr, ptr %10, align 8, !tbaa !35
  %12 = load i32, ptr %11, align 8, !tbaa !41
  %13 = icmp eq i32 %12, 1
  %14 = getelementptr inbounds nuw i8, ptr %1, i64 24
  %15 = load ptr, ptr %14, align 8, !tbaa !74
  %16 = getelementptr inbounds nuw i8, ptr %1, i64 32
  %17 = load i32, ptr %16, align 8, !tbaa !75
  br i1 %13, label %18, label %42

18:                                               ; preds = %2
  %19 = getelementptr inbounds nuw i8, ptr %0, i64 24
  %20 = load ptr, ptr %19, align 8, !tbaa !4
  %21 = getelementptr inbounds nuw i8, ptr %20, i64 32
  %22 = load i32, ptr %21, align 8, !tbaa !30
  %23 = icmp eq i32 %22, 16000
  br i1 %23, label %24, label %25

24:                                               ; preds = %18
  tail call void (ptr, i32, ptr, ...) @av_log(ptr noundef nonnull %0, i32 noundef 32, ptr noundef nonnull @.str.16) #6
  br label %25

25:                                               ; preds = %24, %18
  %26 = getelementptr inbounds nuw i8, ptr %20, i64 48
  %27 = load ptr, ptr %26, align 8, !tbaa !46
  %28 = tail call i64 @av_fifo_can_write(ptr noundef %27) #6
  %29 = sext i32 %17 to i64
  %30 = icmp ult i64 %28, %29
  br i1 %30, label %31, label %32

31:                                               ; preds = %25
  tail call void (ptr, i32, ptr, ...) @av_log(ptr noundef nonnull %0, i32 noundef 16, ptr noundef nonnull @.str.17) #6
  br label %swf_write_audio.exit

32:                                               ; preds = %25
  %33 = load ptr, ptr %26, align 8, !tbaa !46
  %34 = tail call i32 @av_fifo_write(ptr noundef %33, ptr noundef %15, i64 noundef %29) #6
  %35 = tail call i32 @av_get_audio_frame_duration2(ptr noundef nonnull %11, i32 noundef %17) #6
  %36 = getelementptr inbounds nuw i8, ptr %20, i64 28
  %37 = load i32, ptr %36, align 4, !tbaa !25
  %38 = add nsw i32 %37, %35
  store i32 %38, ptr %36, align 4, !tbaa !25
  %39 = getelementptr inbounds nuw i8, ptr %20, i64 64
  %40 = load ptr, ptr %39, align 8, !tbaa !48
  %.not.i = icmp eq ptr %40, null
  br i1 %.not.i, label %41, label %swf_write_audio.exit

41:                                               ; preds = %32
  tail call fastcc void @swf_write_video(ptr noundef nonnull %0, ptr noundef nonnull %11, ptr noundef null, i32 noundef 0, i32 noundef 0)
  br label %swf_write_audio.exit

42:                                               ; preds = %2
  %43 = getelementptr inbounds nuw i8, ptr %1, i64 40
  %44 = load i32, ptr %43, align 8, !tbaa !76
  tail call fastcc void @swf_write_video(ptr noundef nonnull %0, ptr noundef nonnull %11, ptr noundef %15, i32 noundef %17, i32 noundef %44)
  br label %swf_write_audio.exit

swf_write_audio.exit:                             ; preds = %41, %32, %31, %42
  %.0 = phi i32 [ 0, %42 ], [ -1, %31 ], [ 0, %41 ], [ 0, %32 ]
  ret i32 %.0
}